; ModuleID = '11/713.c'
source_filename = "11/713.c"
target datalayout = "e-m:e-p270:32:32-p271:32:32-p272:64:64-i64:64-f80:128-n8:16:32:64-S128"
target triple = "x86_64-pc-linux-gnu"

@.str = private unnamed_addr constant [7 x i8] c"%d%d%d\00", align 1
@.str.1 = private unnamed_addr constant [4 x i8] c"%d\0A\00", align 1

; Function Attrs: noinline nounwind uwtable
define dso_local i32 @RunNian(i32 %0) #0 {
  %2 = alloca i32, align 4
  %3 = alloca i32, align 4
  store i32 %0, i32* %2, align 4
  %4 = load i32, i32* %2, align 4
  %5 = srem i32 %4, 4
  %6 = icmp eq i32 %5, 0
  br i1 %6, label %7, label %11

7:                                                ; preds = %1
  %8 = load i32, i32* %2, align 4
  %9 = srem i32 %8, 100
  %10 = icmp ne i32 %9, 0
  br i1 %10, label %15, label %11

11:                                               ; preds = %7, %1
  %12 = load i32, i32* %2, align 4
  %13 = srem i32 %12, 400
  %14 = icmp eq i32 %13, 0
  br i1 %14, label %15, label %16

15:                                               ; preds = %11, %7
  store i32 1, i32* %3, align 4
  br label %17

16:                                               ; preds = %11
  store i32 0, i32* %3, align 4
  br label %17

17:                                               ; preds = %16, %15
  %18 = load i32, i32* %3, align 4
  ret i32 %18
}

; Function Attrs: noinline nounwind uwtable
define dso_local i32 @DiJiTian(i32 %0, i32 %1, i32 %2) #0 {
  %4 = alloca i32, align 4
  %5 = alloca i32, align 4
  %6 = alloca i32, align 4
  %7 = alloca i32, align 4
  %8 = alloca i32, align 4
  store i32 %0, i32* %4, align 4
  store i32 %1, i32* %5, align 4
  store i32 %2, i32* %6, align 4
  store i32 0, i32* %7, align 4
  store i32 1, i32* %8, align 4
  br label %9

9:                                                ; preds = %69, %3
  %10 = load i32, i32* %8, align 4
  %11 = load i32, i32* %5, align 4
  %12 = icmp slt i32 %10, %11
  br i1 %12, label %13, label %72

13:                                               ; preds = %9
  %14 = load i32, i32* %8, align 4
  %15 = icmp eq i32 %14, 1
  br i1 %15, label %34, label %16

16:                                               ; preds = %13
  %17 = load i32, i32* %8, align 4
  %18 = icmp eq i32 %17, 3
  br i1 %18, label %34, label %19

19:                                               ; preds = %16
  %20 = load i32, i32* %8, align 4
  %21 = icmp eq i32 %20, 5
  br i1 %21, label %34, label %22

22:                                               ; preds = %19
  %23 = load i32, i32* %8, align 4
  %24 = icmp eq i32 %23, 7
  br i1 %24, label %34, label %25

25:                                               ; preds = %22
  %26 = load i32, i32* %8, align 4
  %27 = icmp eq i32 %26, 8
  br i1 %27, label %34, label %28

28:                                               ; preds = %25
  %29 = load i32, i32* %8, align 4
  %30 = icmp eq i32 %29, 10
  br i1 %30, label %34, label %31

31:                                               ; preds = %28
  %32 = load i32, i32* %8, align 4
  %33 = icmp eq i32 %32, 12
  br i1 %33, label %34, label %37

34:                                               ; preds = %31, %28, %25, %22, %19, %16, %13
  %35 = load i32, i32* %7, align 4
  %36 = add nsw i32 %35, 31
  store i32 %36, i32* %7, align 4
  br label %68

37:                                               ; preds = %31
  %38 = load i32, i32* %8, align 4
  %39 = icmp eq i32 %38, 4
  br i1 %39, label %49, label %40

40:                                               ; preds = %37
  %41 = load i32, i32* %8, align 4
  %42 = icmp eq i32 %41, 6
  br i1 %42, label %49, label %43

43:                                               ; preds = %40
  %44 = load i32, i32* %8, align 4
  %45 = icmp eq i32 %44, 9
  br i1 %45, label %49, label %46

46:                                               ; preds = %43
  %47 = load i32, i32* %8, align 4
  %48 = icmp eq i32 %47, 11
  br i1 %48, label %49, label %52

49:                                               ; preds = %46, %43, %40, %37
  %50 = load i32, i32* %7, align 4
  %51 = add nsw i32 %50, 30
  store i32 %51, i32* %7, align 4
  br label %67

52:                                               ; preds = %46
  %53 = load i32, i32* %8, align 4
  %54 = icmp eq i32 %53, 2
  br i1 %54, label %55, label %66

55:                                               ; preds = %52
  %56 = load i32, i32* %4, align 4
  %57 = call i32 @RunNian(i32 %56)
  %58 = icmp ne i32 %57, 0
  br i1 %58, label %59, label %62

59:                                               ; preds = %55
  %60 = load i32, i32* %7, align 4
  %61 = add nsw i32 %60, 29
  store i32 %61, i32* %7, align 4
  br label %65

62:                                               ; preds = %55
  %63 = load i32, i32* %7, align 4
  %64 = add nsw i32 %63, 28
  store i32 %64, i32* %7, align 4
  br label %65

65:                                               ; preds = %62, %59
  br label %66

66:                                               ; preds = %65, %52
  br label %67

67:                                               ; preds = %66, %49
  br label %68

68:                                               ; preds = %67, %34
  br label %69

69:                                               ; preds = %68
  %70 = load i32, i32* %8, align 4
  %71 = add nsw i32 %70, 1
  store i32 %71, i32* %8, align 4
  br label %9

72:                                               ; preds = %9
  %73 = load i32, i32* %6, align 4
  %74 = load i32, i32* %7, align 4
  %75 = add nsw i32 %74, %73
  store i32 %75, i32* %7, align 4
  %76 = load i32, i32* %7, align 4
  ret i32 %76
}

; Function Attrs: noinline nounwind uwtable
define dso_local i32 @main() #0 {
  %1 = alloca i32, align 4
  %2 = alloca i32, align 4
  %3 = alloca i32, align 4
  %4 = alloca i32, align 4
  %5 = alloca i32, align 4
  %6 = alloca i32, align 4
  %7 = alloca i32, align 4
  store i32 0, i32* %1, align 4
  store i32 0, i32* %7, align 4
  %8 = call i32 (i8*, ...) @__isoc99_scanf(i8* getelementptr inbounds ([7 x i8], [7 x i8]* @.str, i64 0, i64 0), i32* %2, i32* %3, i32* %4)
  %9 = load i32, i32* %2, align 4
  %10 = load i32, i32* %3, align 4
  %11 = load i32, i32* %4, align 4
  %12 = call i32 @DiJiTian(i32 %9, i32 %10, i32 %11)
  %13 = load i32, i32* %7, align 4
  %14 = add nsw i32 %13, %12
  store i32 %14, i32* %7, align 4
  %15 = load i32, i32* %7, align 4
  %16 = call i32 (i8*, ...) @printf(i8* getelementptr inbounds ([4 x i8], [4 x i8]* @.str.1, i64 0, i64 0), i32 %15)
  ret i32 0
}

declare dso_local i32 @__isoc99_scanf(i8*, ...) #1

declare dso_local i32 @printf(i8*, ...) #1


!llvm.module.flags = !{!0}
!llvm.ident = !{!1}

!0 = !{i32 1, !"wchar_size", i32 4}
!1 = !{!"clang version 10.0.0-4ubuntu1 "}
